; ModuleID = '52/423.c'
source_filename = "52/423.c"
target datalayout = "e-m:e-p270:32:32-p271:32:32-p272:64:64-i64:64-f80:128-n8:16:32:64-S128"
target triple = "x86_64-pc-linux-gnu"

@.str = private unnamed_addr constant [5 x i8] c"%d%d\00", align 1
@.str.1 = private unnamed_addr constant [3 x i8] c"%d\00", align 1
@.str.2 = private unnamed_addr constant [4 x i8] c" %d\00", align 1

; Function Attrs: noinline nounwind uwtable
define dso_local i32 @main() #0 {
  %1 = alloca i32, align 4
  %2 = alloca i32, align 4
  %3 = alloca i32, align 4
  %4 = alloca i32, align 4
  %5 = alloca i32*, align 8
  store i32 0, i32* %1, align 4
  %6 = call i32 (i8*, ...) @__isoc99_scanf(i8* getelementptr inbounds ([5 x i8], [5 x i8]* @.str, i64 0, i64 0), i32* %3, i32* %2)
  %7 = load i32, i32* %3, align 4
  %8 = mul nsw i32 2, %7
  %9 = load i32, i32* %2, align 4
  %10 = sub nsw i32 %8, %9
  %11 = sext i32 %10 to i64
  %12 = mul i64 4, %11
  %13 = call noalias i8* @malloc(i64 %12) #3
  %14 = bitcast i8* %13 to i32*
  store i32* %14, i32** %5, align 8
  store i32 0, i32* %4, align 4
  br label %15

15:                                               ; preds = %25, %0
  %16 = load i32, i32* %4, align 4
  %17 = load i32, i32* %3, align 4
  %18 = icmp slt i32 %16, %17
  br i1 %18, label %19, label %28

19:                                               ; preds = %15
  %20 = load i32*, i32** %5, align 8
  %21 = load i32, i32* %4, align 4
  %22 = sext i32 %21 to i64
  %23 = getelementptr inbounds i32, i32* %20, i64 %22
  %24 = call i32 (i8*, ...) @__isoc99_scanf(i8* getelementptr inbounds ([3 x i8], [3 x i8]* @.str.1, i64 0, i64 0), i32* %23)
  br label %25

25:                                               ; preds = %19
  %26 = load i32, i32* %4, align 4
  %27 = add nsw i32 %26, 1
  store i32 %27, i32* %4, align 4
  br label %15

28:                                               ; preds = %15
  store i32 0, i32* %4, align 4
  br label %29

29:                                               ; preds = %48, %28
  %30 = load i32, i32* %4, align 4
  %31 = load i32, i32* %3, align 4
  %32 = load i32, i32* %2, align 4
  %33 = sub nsw i32 %31, %32
  %34 = icmp slt i32 %30, %33
  br i1 %34, label %35, label %51

35:                                               ; preds = %29
  %36 = load i32*, i32** %5, align 8
  %37 = load i32, i32* %4, align 4
  %38 = sext i32 %37 to i64
  %39 = getelementptr inbounds i32, i32* %36, i64 %38
  %40 = load i32, i32* %39, align 4
  %41 = load i32*, i32** %5, align 8
  %42 = load i32, i32* %4, align 4
  %43 = sext i32 %42 to i64
  %44 = getelementptr inbounds i32, i32* %41, i64 %43
  %45 = load i32, i32* %3, align 4
  %46 = sext i32 %45 to i64
  %47 = getelementptr inbounds i32, i32* %44, i64 %46
  store i32 %40, i32* %47, align 4
  br label %48

48:                                               ; preds = %35
  %49 = load i32, i32* %4, align 4
  %50 = add nsw i32 %49, 1
  store i32 %50, i32* %4, align 4
  br label %29

51:                                               ; preds = %29
  %52 = load i32*, i32** %5, align 8
  %53 = load i32, i32* %3, align 4
  %54 = load i32, i32* %2, align 4
  %55 = sub nsw i32 %53, %54
  %56 = sext i32 %55 to i64
  %57 = getelementptr inbounds i32, i32* %52, i64 %56
  %58 = load i32, i32* %57, align 4
  %59 = call i32 (i8*, ...) @printf(i8* getelementptr inbounds ([3 x i8], [3 x i8]* @.str.1, i64 0, i64 0), i32 %58)
  %60 = load i32, i32* %3, align 4
  %61 = load i32, i32* %2, align 4
  %62 = sub nsw i32 %60, %61
  %63 = add nsw i32 %62, 1
  store i32 %63, i32* %4, align 4
  br label %64

64:                                               ; preds = %78, %51
  %65 = load i32, i32* %4, align 4
  %66 = load i32, i32* %3, align 4
  %67 = mul nsw i32 2, %66
  %68 = load i32, i32* %2, align 4
  %69 = sub nsw i32 %67, %68
  %70 = icmp slt i32 %65, %69
  br i1 %70, label %71, label %81

71:                                               ; preds = %64
  %72 = load i32*, i32** %5, align 8
  %73 = load i32, i32* %4, align 4
  %74 = sext i32 %73 to i64
  %75 = getelementptr inbounds i32, i32* %72, i64 %74
  %76 = load i32, i32* %75, align 4
  %77 = call i32 (i8*, ...) @printf(i8* getelementptr inbounds ([4 x i8], [4 x i8]* @.str.2, i64 0, i64 0), i32 %76)
  br label %78

78:                                               ; preds = %71
  %79 = load i32, i32* %4, align 4
  %80 = add nsw i32 %79, 1
  store i32 %80, i32* %4, align 4
  br label %64

81:                                               ; preds = %64
  %82 = load i32*, i32** %5, align 8
  %83 = bitcast i32* %82 to i8*
  call void @free(i8* %83) #3
  ret i32 0
}

declare dso_local i32 @__isoc99_scanf(i8*, ...) #1

; Function Attrs: nounwind
declare dso_local noalias i8* @malloc(i64) #2

declare dso_local i32 @printf(i8*, ...) #1

; Function Attrs: nounwind
declare dso_local void @free(i8*) #2


!llvm.module.flags = !{!0}
!llvm.ident = !{!1}

!0 = !{i32 1, !"wchar_size", i32 4}
!1 = !{!"clang version 10.0.0-4ubuntu1 "}
